target datalayout = "e-m:e-p270:32:32-p271:32:32-p272:64:64-i64:64-i128:128-f80:128-n8:16:32:64-S128"
target triple = "x86_64-pc-linux-gnu"

%"class.nanobind::handle" = type { ptr }
%struct.NonAssignable = type { i32 }
%class.anon.655 = type { i8 }
%"struct.nanobind::detail::tuple.657" = type { %"struct.nanobind::detail::type_caster.658" }
%"struct.nanobind::detail::type_caster.658" = type { %"struct.nanobind::detail::optional_caster.659" }
%"struct.nanobind::detail::optional_caster.659" = type { %"class.std::optional.660" }
%"class.std::optional.660" = type { %"struct.std::_Optional_base.661" }
%"struct.std::_Optional_base.661" = type { %"struct.std::_Optional_payload.663" }
%"struct.std::_Optional_payload.663" = type { %"struct.std::_Optional_payload_base.base.665", [3 x i8] }
%"struct.std::_Optional_payload_base.base.665" = type <{ %"union.std::_Optional_payload_base<NonAssignable>::_Storage", i8 }>
%"union.std::_Optional_payload_base<NonAssignable>::_Storage" = type { %struct.NonAssignable }
%"struct.std::_Optional_payload_base.664" = type <{ %"union.std::_Optional_payload_base<NonAssignable>::_Storage", i8, [3 x i8] }>

; Function Attrs: mustprogress nounwind optsize uwtable
define linkonce_odr hidden void @_ZN13NonAssignableC2ERKS_(ptr noundef nonnull align 4 dereferenceable(4) %0, ptr noundef nonnull align 4 dereferenceable(4) %1) unnamed_addr #2 comdat align 2 {
  %3 = alloca ptr, align 8
  %4 = alloca ptr, align 8
  store ptr %0, ptr %3, align 8, !tbaa !268
  store ptr %1, ptr %4, align 8, !tbaa !268
  %5 = load ptr, ptr %3, align 8
  %6 = getelementptr inbounds nuw %struct.NonAssignable, ptr %5, i32 0, i32 0
  %7 = load ptr, ptr %4, align 8, !tbaa !268
  %8 = getelementptr inbounds nuw %struct.NonAssignable, ptr %7, i32 0, i32 0
  %9 = load i32, ptr %8, align 4, !tbaa !270
  store i32 %9, ptr %6, align 4, !tbaa !270
  ret void
}

; Function Attrs: inlinehint mustprogress optsize uwtable
define linkonce_odr hidden void @_ZSt10_ConstructI13NonAssignableJRKS0_EEvPT_DpOT0_(ptr noundef %0, ptr noundef nonnull align 4 dereferenceable(4) %1) #10 comdat {
  %3 = alloca ptr, align 8
  %4 = alloca ptr, align 8
  store ptr %0, ptr %3, align 8, !tbaa !268
  store ptr %1, ptr %4, align 8, !tbaa !268
  %5 = load ptr, ptr %3, align 8, !tbaa !268
  %6 = load ptr, ptr %4, align 8, !tbaa !268
  call void @_ZN13NonAssignableC2ERKS_(ptr noundef nonnull align 4 dereferenceable(4) %5, ptr noundef nonnull align 4 dereferenceable(4) %6) #22
  ret void
}

; Function Attrs: mustprogress nounwind optsize uwtable
define linkonce_odr hidden void @_ZNSt22_Optional_payload_baseI13NonAssignableEC2Ev(ptr noundef nonnull align 4 dereferenceable(5) %0) unnamed_addr #2 comdat align 2 {
  %2 = alloca ptr, align 8
  store ptr %0, ptr %2, align 8, !tbaa !1088
  %3 = load ptr, ptr %2, align 8
  %4 = getelementptr inbounds nuw %"struct.std::_Optional_payload_base.664", ptr %3, i32 0, i32 0
  call void @_ZNSt22_Optional_payload_baseI13NonAssignableE8_StorageIS0_Lb1EEC2Ev(ptr noundef nonnull align 4 dereferenceable(4) %4) #23
  %5 = getelementptr inbounds nuw %"struct.std::_Optional_payload_base.664", ptr %3, i32 0, i32 1
  store i8 0, ptr %5, align 4, !tbaa !1090
  ret void
}

; Function Attrs: mustprogress optsize uwtable
define linkonce_odr hidden void @_ZNSt22_Optional_payload_baseI13NonAssignableE12_M_constructIJRKS0_EEEvDpOT_(ptr noundef nonnull align 4 dereferenceable(5) %0, ptr noundef nonnull align 4 dereferenceable(4) %1) #0 comdat align 2 {
  %3 = alloca ptr, align 8
  %4 = alloca ptr, align 8
  store ptr %0, ptr %3, align 8, !tbaa !1088
  store ptr %1, ptr %4, align 8, !tbaa !268
  %5 = load ptr, ptr %3, align 8
  %6 = getelementptr inbounds nuw %"struct.std::_Optional_payload_base.664", ptr %5, i32 0, i32 0
  %7 = load ptr, ptr %4, align 8, !tbaa !268
  call void @_ZSt10_ConstructI13NonAssignableJRKS0_EEvPT_DpOT0_(ptr noundef %6, ptr noundef nonnull align 4 dereferenceable(4) %7) #22
  %8 = getelementptr inbounds nuw %"struct.std::_Optional_payload_base.664", ptr %5, i32 0, i32 1
  store i8 1, ptr %8, align 4, !tbaa !1090
  ret void
}

; Function Attrs: mustprogress nounwind optsize uwtable
define linkonce_odr hidden noundef nonnull align 4 dereferenceable(4) ptr @_ZNKSt22_Optional_payload_baseI13NonAssignableE6_M_getEv(ptr noundef nonnull align 4 dereferenceable(5) %0) #2 comdat align 2 {
  %2 = alloca ptr, align 8
  store ptr %0, ptr %2, align 8, !tbaa !1088
  %3 = load ptr, ptr %2, align 8
  %4 = getelementptr inbounds nuw %"struct.std::_Optional_payload_base.664", ptr %3, i32 0, i32 0
  ret ptr %4
}

; Function Attrs: mustprogress nounwind optsize uwtable
define linkonce_odr hidden void @_ZNSt22_Optional_payload_baseI13NonAssignableE8_StorageIS0_Lb1EEC2Ev(ptr noundef nonnull align 4 dereferenceable(4) %0) unnamed_addr #2 comdat align 2 {
  %2 = alloca ptr, align 8
  store ptr %0, ptr %2, align 8, !tbaa !1092
  ret void
}

; Function Attrs: mustprogress nounwind optsize uwtable
define linkonce_odr hidden void @_ZNSt17_Optional_payloadI13NonAssignableLb1ELb0ELb0EEC2Ev(ptr noundef nonnull align 4 dereferenceable(5) %0) unnamed_addr #2 comdat align 2 {
  %2 = alloca ptr, align 8
  store ptr %0, ptr %2, align 8, !tbaa !1086
  %3 = load ptr, ptr %2, align 8
  call void @_ZNSt22_Optional_payload_baseI13NonAssignableEC2Ev(ptr noundef nonnull align 4 dereferenceable(5) %3) #23
  ret void
}

; Function Attrs: mustprogress optsize uwtable
define linkonce_odr hidden void @_ZNSt22_Optional_payload_baseI13NonAssignableEC2EbRKS1_(ptr noundef nonnull align 4 dereferenceable(5) %0, i1 noundef zeroext %1, ptr noundef nonnull align 4 dereferenceable(5) %2) unnamed_addr #0 comdat align 2 {
  %4 = alloca ptr, align 8
  %5 = alloca i8, align 1
  %6 = alloca ptr, align 8
  store ptr %0, ptr %4, align 8, !tbaa !1088
  %7 = zext i1 %1 to i8
  store i8 %7, ptr %5, align 1, !tbaa !103
  store ptr %2, ptr %6, align 8, !tbaa !1088
  %8 = load ptr, ptr %4, align 8
  %9 = getelementptr inbounds nuw %"struct.std::_Optional_payload_base.664", ptr %8, i32 0, i32 0
  call void @_ZNSt22_Optional_payload_baseI13NonAssignableE8_StorageIS0_Lb1EEC2Ev(ptr noundef nonnull align 4 dereferenceable(4) %9) #23
  %10 = getelementptr inbounds nuw %"struct.std::_Optional_payload_base.664", ptr %8, i32 0, i32 1
  store i8 0, ptr %10, align 4, !tbaa !1090
  %11 = load ptr, ptr %6, align 8, !tbaa !1088
  %12 = getelementptr inbounds nuw %"struct.std::_Optional_payload_base.664", ptr %11, i32 0, i32 1
  %13 = load i8, ptr %12, align 4, !tbaa !1090, !range !104, !noundef !105
  %14 = trunc i8 %13 to i1
  br i1 %14, label %15, label %18

15:                                               ; preds = %3
  %16 = load ptr, ptr %6, align 8, !tbaa !1088
  %17 = call noundef nonnull align 4 dereferenceable(4) ptr @_ZNKSt22_Optional_payload_baseI13NonAssignableE6_M_getEv(ptr noundef nonnull align 4 dereferenceable(5) %16) #23
  call void @_ZNSt22_Optional_payload_baseI13NonAssignableE12_M_constructIJRKS0_EEEvDpOT_(ptr noundef nonnull align 4 dereferenceable(5) %8, ptr noundef nonnull align 4 dereferenceable(4) %17) #22
  br label %18

18:                                               ; preds = %15, %3
  ret void
}

; Function Attrs: mustprogress nounwind optsize uwtable
define linkonce_odr hidden void @_ZNSt14_Optional_baseI13NonAssignableLb0ELb0EEC2Ev(ptr noundef nonnull align 4 dereferenceable(8) %0) unnamed_addr #2 comdat align 2 {
  %2 = alloca ptr, align 8
  store ptr %0, ptr %2, align 8, !tbaa !1084
  %3 = load ptr, ptr %2, align 8
  %4 = getelementptr inbounds nuw %"struct.std::_Optional_base.661", ptr %3, i32 0, i32 0
  call void @_ZNSt17_Optional_payloadI13NonAssignableLb1ELb0ELb0EEC2Ev(ptr noundef nonnull align 4 dereferenceable(5) %4) #23
  ret void
}

; Function Attrs: inlinehint mustprogress optsize uwtable
define linkonce_odr hidden void @_ZNSt17_Optional_payloadI13NonAssignableLb1ELb0ELb0EECI2St22_Optional_payload_baseIS0_EEbRKS2_IS0_E(ptr noundef nonnull align 4 dereferenceable(5) %0, i1 noundef zeroext %1, ptr noundef nonnull align 4 dereferenceable(5) %2) unnamed_addr #10 comdat align 2 {
  %4 = alloca ptr, align 8
  %5 = alloca i8, align 1
  %6 = alloca ptr, align 8
  store ptr %0, ptr %4, align 8, !tbaa !1086
  %7 = zext i1 %1 to i8
  store i8 %7, ptr %5, align 1, !tbaa !103
  store ptr %2, ptr %6, align 8, !tbaa !1088
  %8 = load ptr, ptr %4, align 8
  %9 = load i8, ptr %5, align 1, !tbaa !103, !range !104, !noundef !105
  %10 = trunc i8 %9 to i1
  %11 = load ptr, ptr %6, align 8
  call void @_ZNSt22_Optional_payload_baseI13NonAssignableEC2EbRKS1_(ptr noundef nonnull align 4 dereferenceable(5) %8, i1 noundef zeroext %10, ptr noundef nonnull align 4 dereferenceable(5) %11) #22
  ret void
}

; Function Attrs: mustprogress nounwind optsize uwtable
define linkonce_odr hidden void @_ZNSt8optionalI13NonAssignableEC2Ev(ptr noundef nonnull align 4 dereferenceable(8) %0) unnamed_addr #2 comdat align 2 {
  %2 = alloca ptr, align 8
  store ptr %0, ptr %2, align 8, !tbaa !1080
  %3 = load ptr, ptr %2, align 8
  call void @_ZNSt14_Optional_baseI13NonAssignableLb0ELb0EEC2Ev(ptr noundef nonnull align 4 dereferenceable(8) %3) #23
  ret void
}

; Function Attrs: mustprogress optsize uwtable
define linkonce_odr hidden void @_ZNSt14_Optional_baseI13NonAssignableLb0ELb0EEC2ERKS1_(ptr noundef nonnull align 4 dereferenceable(8) %0, ptr noundef nonnull align 4 dereferenceable(8) %1) unnamed_addr #0 comdat align 2 {
  %3 = alloca ptr, align 8
  %4 = alloca ptr, align 8
  store ptr %0, ptr %3, align 8, !tbaa !1084
  store ptr %1, ptr %4, align 8, !tbaa !1084
  %5 = load ptr, ptr %3, align 8
  %6 = getelementptr inbounds nuw %"struct.std::_Optional_base.661", ptr %5, i32 0, i32 0
  %7 = load ptr, ptr %4, align 8, !tbaa !1084
  %8 = getelementptr inbounds nuw %"struct.std::_Optional_base.661", ptr %7, i32 0, i32 0
  %9 = getelementptr inbounds nuw %"struct.std::_Optional_payload_base.664", ptr %8, i32 0, i32 1
  %10 = load i8, ptr %9, align 4, !tbaa !1090, !range !104, !noundef !105
  %11 = trunc i8 %10 to i1
  %12 = load ptr, ptr %4, align 8, !tbaa !1084
  %13 = getelementptr inbounds nuw %"struct.std::_Optional_base.661", ptr %12, i32 0, i32 0
  call void @_ZNSt17_Optional_payloadI13NonAssignableLb1ELb0ELb0EECI2St22_Optional_payload_baseIS0_EEbRKS2_IS0_E(ptr noundef nonnull align 4 dereferenceable(5) %6, i1 noundef zeroext %11, ptr noundef nonnull align 4 dereferenceable(5) %13) #22
  ret void
}

; Function Attrs: inlinehint mustprogress nounwind optsize uwtable
define linkonce_odr hidden void @_ZN8nanobind6detail15optional_casterISt8optionalI13NonAssignableES3_EC2Ev(ptr noundef nonnull align 4 dereferenceable(8) %0) unnamed_addr #11 comdat align 2 {
  %2 = alloca ptr, align 8
  store ptr %0, ptr %2, align 8, !tbaa !1078
  %3 = load ptr, ptr %2, align 8
  %4 = getelementptr inbounds nuw %"struct.nanobind::detail::optional_caster.659", ptr %3, i32 0, i32 0
  call void @_ZNSt8optionalI13NonAssignableEC2Ev(ptr noundef nonnull align 4 dereferenceable(8) %4) #23
  ret void
}

; Function Attrs: inlinehint mustprogress optsize uwtable
define linkonce_odr hidden void @_ZNSt8optionalI13NonAssignableEC2ERKS1_(ptr noundef nonnull align 4 dereferenceable(8) %0, ptr noundef nonnull align 4 dereferenceable(8) %1) unnamed_addr #10 comdat align 2 {
  %3 = alloca ptr, align 8
  %4 = alloca ptr, align 8
  store ptr %0, ptr %3, align 8, !tbaa !1080
  store ptr %1, ptr %4, align 8, !tbaa !1080
  %5 = load ptr, ptr %3, align 8
  %6 = load ptr, ptr %4, align 8, !tbaa !1080
  call void @_ZNSt14_Optional_baseI13NonAssignableLb0ELb0EEC2ERKS1_(ptr noundef nonnull align 4 dereferenceable(8) %5, ptr noundef nonnull align 4 dereferenceable(8) %6) #22
  ret void
}

; Function Attrs: inlinehint mustprogress nounwind optsize uwtable
define linkonce_odr hidden void @_ZN8nanobind6detail11type_casterISt8optionalI13NonAssignableEiEC2Ev(ptr noundef nonnull align 4 dereferenceable(8) %0) unnamed_addr #11 comdat align 2 {
  %2 = alloca ptr, align 8
  store ptr %0, ptr %2, align 8, !tbaa !1082
  %3 = load ptr, ptr %2, align 8
  call void @_ZN8nanobind6detail15optional_casterISt8optionalI13NonAssignableES3_EC2Ev(ptr noundef nonnull align 4 dereferenceable(8) %3) #23
  ret void
}

; Function Attrs: alwaysinline mustprogress nounwind optsize uwtable
define linkonce_odr hidden noundef ptr @_ZNK8nanobind6handle3ptrEv(ptr noundef nonnull align 8 dereferenceable(8) %0) #3 comdat align 2 {
  %2 = alloca ptr, align 8
  store ptr %0, ptr %2, align 8, !tbaa !17
  %3 = load ptr, ptr %2, align 8
  %4 = getelementptr inbounds nuw %"class.nanobind::handle", ptr %3, i32 0, i32 0
  %5 = load ptr, ptr %4, align 8, !tbaa !19
  ret ptr %5
}

; Function Attrs: inlinehint mustprogress optsize uwtable
define internal void @"_ZZL26nanobind_init_test_stl_extRN8nanobind7module_EENK4$_49clERSt8optionalI13NonAssignableE"(ptr dead_on_unwind noalias writable sret(%"class.std::optional.660") align 4 %0, ptr noundef nonnull align 1 dereferenceable(1) %1, ptr noundef nonnull align 4 dereferenceable(8) %2) #10 align 2 {
  %4 = alloca ptr, align 8
  %5 = alloca ptr, align 8
  %6 = alloca ptr, align 8
  store ptr %0, ptr %4, align 8
  store ptr %1, ptr %5, align 8, !tbaa !8
  store ptr %2, ptr %6, align 8, !tbaa !1080
  %7 = load ptr, ptr %6, align 8, !tbaa !1080
  call void @_ZNSt8optionalI13NonAssignableEC2ERKS1_(ptr noundef nonnull align 4 dereferenceable(8) %0, ptr noundef nonnull align 4 dereferenceable(8) %7) #22
  ret void
}

; Function Attrs: mustprogress nounwind optsize uwtable
define linkonce_odr hidden noundef nonnull align 4 dereferenceable(8) ptr @_ZN8nanobind6detail15optional_casterISt8optionalI13NonAssignableES3_EcvRS4_Ev(ptr noundef nonnull align 4 dereferenceable(8) %0) #2 comdat align 2 {
  %2 = alloca ptr, align 8
  store ptr %0, ptr %2, align 8, !tbaa !1078
  %3 = load ptr, ptr %2, align 8
  %4 = getelementptr inbounds nuw %"struct.nanobind::detail::optional_caster.659", ptr %3, i32 0, i32 0
  ret ptr %4
}

; Function Attrs: alwaysinline mustprogress nounwind optsize uwtable
define linkonce_odr hidden void @_ZN8nanobind6handleC2EPK7_object(ptr noundef nonnull align 8 dereferenceable(8) %0, ptr noundef %1) unnamed_addr #3 comdat align 2 {
  %3 = alloca ptr, align 8
  %4 = alloca ptr, align 8
  store ptr %0, ptr %3, align 8, !tbaa !17
  store ptr %1, ptr %4, align 8, !tbaa !3
  %5 = load ptr, ptr %3, align 8
  %6 = getelementptr inbounds nuw %"class.nanobind::handle", ptr %5, i32 0, i32 0
  %7 = load ptr, ptr %4, align 8, !tbaa !3
  store ptr %7, ptr %6, align 8, !tbaa !19
  ret void
}

; Function Attrs: alwaysinline mustprogress nounwind optsize uwtable
define linkonce_odr hidden noundef nonnull align 4 dereferenceable(8) ptr @_ZN8nanobind6detail5tupleIJNS0_11type_casterISt8optionalI13NonAssignableEiEEEE3getILm0EEERDav(ptr noundef nonnull align 4 dereferenceable(8) %0) #3 comdat align 2 {
  %2 = alloca ptr, align 8
  store ptr %0, ptr %2, align 8, !tbaa !1076
  %3 = load ptr, ptr %2, align 8
  %4 = getelementptr inbounds nuw %"struct.nanobind::detail::tuple.657", ptr %3, i32 0, i32 0
  ret ptr %4
}

; Function Attrs: mustprogress nounwind optsize uwtable
define linkonce_odr hidden void @_ZN8nanobind6detail5tupleIJNS0_11type_casterISt8optionalI13NonAssignableEiEEEEC2Ev(ptr noundef nonnull align 4 dereferenceable(8) %0) unnamed_addr #2 comdat align 2 {
  %2 = alloca ptr, align 8
  store ptr %0, ptr %2, align 8, !tbaa !1076
  %3 = load ptr, ptr %2, align 8
  %4 = getelementptr inbounds nuw %"struct.nanobind::detail::tuple.657", ptr %3, i32 0, i32 0
  call void @_ZN8nanobind6detail11type_casterISt8optionalI13NonAssignableEiEC2Ev(ptr noundef nonnull align 4 dereferenceable(8) %4) #23
  ret void
}

; Function Attrs: alwaysinline mustprogress optsize uwtable
define internal noundef ptr @"_ZZN8nanobind6detail11func_createILb0ELb1EZL26nanobind_init_test_stl_extRNS_7module_EE4$_49St8optionalI13NonAssignableEJRS7_EJLm0EEJNS_5scopeENS_4nameEEEEP7_objectOT1_PFT2_DpT3_ESt16integer_sequenceImJXspT4_EEEDpRKT5_ENKUlPvPSC_PhNS_9rv_policyEPNS0_12cleanup_listEE_clESQ_SR_SS_ST_SV_"(ptr noundef nonnull align 1 dereferenceable(1) %0, ptr noundef %1, ptr noundef %2, ptr noundef %3, i32 noundef %4, ptr noundef %5) #7 align 2 {
  %7 = alloca ptr, align 8
  %8 = alloca ptr, align 8
  %9 = alloca ptr, align 8
  %10 = alloca ptr, align 8
  %11 = alloca ptr, align 8
  %12 = alloca i32, align 4
  %13 = alloca ptr, align 8
  %14 = alloca ptr, align 8
  %15 = alloca %"struct.nanobind::detail::tuple.657", align 4
  %16 = alloca %"class.nanobind::handle", align 8
  %17 = alloca i32, align 4
  %18 = alloca ptr, align 8
  %19 = alloca %"class.nanobind::handle", align 8
  %20 = alloca %"class.std::optional.660", align 4
  store ptr %0, ptr %8, align 8, !tbaa !8
  store ptr %1, ptr %9, align 8, !tbaa !8
  store ptr %2, ptr %10, align 8, !tbaa !165
  store ptr %3, ptr %11, align 8, !tbaa !34
  store i32 %4, ptr %12, align 4, !tbaa !23
  store ptr %5, ptr %13, align 8, !tbaa !167
  call void @llvm.lifetime.start.p0(i64 8, ptr %14) #21
  %21 = load ptr, ptr %9, align 8, !tbaa !8
  store ptr %21, ptr %14, align 8, !tbaa !1072
  call void @llvm.lifetime.start.p0(i64 8, ptr %15) #21
  call void @_ZN8nanobind6detail5tupleIJNS0_11type_casterISt8optionalI13NonAssignableEiEEEEC2Ev(ptr noundef nonnull align 4 dereferenceable(8) %15) #23
  %22 = call noundef nonnull align 4 dereferenceable(8) ptr @_ZN8nanobind6detail5tupleIJNS0_11type_casterISt8optionalI13NonAssignableEiEEEE3getILm0EEERDav(ptr noundef nonnull align 4 dereferenceable(8) %15) #22
  %23 = load ptr, ptr %10, align 8, !tbaa !165
  %24 = getelementptr inbounds nuw ptr, ptr %23, i64 0
  %25 = load ptr, ptr %24, align 8, !tbaa !3
  call void @_ZN8nanobind6handleC2EPK7_object(ptr noundef nonnull align 8 dereferenceable(8) %16, ptr noundef %25) #22
  %26 = load ptr, ptr %11, align 8, !tbaa !34
  %27 = getelementptr inbounds nuw i8, ptr %26, i64 0
  %28 = load i8, ptr %27, align 1, !tbaa !57
  %29 = load ptr, ptr %13, align 8, !tbaa !167
  %30 = getelementptr inbounds nuw %"class.nanobind::handle", ptr %16, i32 0, i32 0
  %31 = load ptr, ptr %30, align 8
  %32 = call noundef zeroext i1 @_ZN8nanobind6detail15optional_casterISt8optionalI13NonAssignableES3_E11from_pythonENS_6handleEhPNS0_12cleanup_listE(ptr noundef nonnull align 4 dereferenceable(8) %22, ptr %31, i8 noundef zeroext %28, ptr noundef %29) #23
  br i1 %32, label %34, label %33

33:                                               ; preds = %6
  store ptr inttoptr (i64 1 to ptr), ptr %7, align 8
  store i32 1, ptr %17, align 4
  br label %44

34:                                               ; preds = %6
  call void @llvm.lifetime.start.p0(i64 8, ptr %18) #21
  call void @llvm.lifetime.start.p0(i64 8, ptr %19) #21
  call void @llvm.lifetime.start.p0(i64 8, ptr %20) #21
  %35 = load ptr, ptr %14, align 8, !tbaa !1072
  %36 = call noundef nonnull align 4 dereferenceable(8) ptr @_ZN8nanobind6detail5tupleIJNS0_11type_casterISt8optionalI13NonAssignableEiEEEE3getILm0EEERDav(ptr noundef nonnull align 4 dereferenceable(8) %15) #22
  %37 = call noundef nonnull align 4 dereferenceable(8) ptr @_ZN8nanobind6detail15optional_casterISt8optionalI13NonAssignableES3_EcvRS4_Ev(ptr noundef nonnull align 4 dereferenceable(8) %36) #22
  call void @"_ZZL26nanobind_init_test_stl_extRN8nanobind7module_EENK4$_49clERSt8optionalI13NonAssignableE"(ptr dead_on_unwind writable sret(%"class.std::optional.660") align 4 %20, ptr noundef nonnull align 1 dereferenceable(1) %35, ptr noundef nonnull align 4 dereferenceable(8) %37) #22
  %38 = load i32, ptr %12, align 4, !tbaa !23
  %39 = load ptr, ptr %13, align 8, !tbaa !167
  %40 = call ptr @_ZN8nanobind6detail15optional_casterISt8optionalI13NonAssignableES3_E8from_cppIS4_EENS_6handleEOT_NS_9rv_policyEPNS0_12cleanup_listE(ptr noundef nonnull align 4 dereferenceable(8) %20, i32 noundef %38, ptr noundef %39) #23
  %41 = getelementptr inbounds nuw %"class.nanobind::handle", ptr %19, i32 0, i32 0
  store ptr %40, ptr %41, align 8
  %42 = call noundef ptr @_ZNK8nanobind6handle3ptrEv(ptr noundef nonnull align 8 dereferenceable(8) %19) #22
  store ptr %42, ptr %18, align 8, !tbaa !3
  call void @llvm.lifetime.end.p0(i64 8, ptr %20) #21
  call void @llvm.lifetime.end.p0(i64 8, ptr %19) #21
  %43 = load ptr, ptr %18, align 8, !tbaa !3
  store ptr %43, ptr %7, align 8
  store i32 1, ptr %17, align 4
  call void @llvm.lifetime.end.p0(i64 8, ptr %18) #21
  br label %44

44:                                               ; preds = %34, %33
  call void @llvm.lifetime.end.p0(i64 8, ptr %15) #21
  call void @llvm.lifetime.end.p0(i64 8, ptr %14) #21
  %45 = load ptr, ptr %7, align 8
  ret ptr %45
}

; Function Attrs: inlinehint mustprogress optsize uwtable
define internal noundef ptr @"_ZZN8nanobind6detail11func_createILb0ELb1EZL26nanobind_init_test_stl_extRNS_7module_EE4$_49St8optionalI13NonAssignableEJRS7_EJLm0EEJNS_5scopeENS_4nameEEEEP7_objectOT1_PFT2_DpT3_ESt16integer_sequenceImJXspT4_EEEDpRKT5_ENUlPvPSC_PhNS_9rv_policyEPNS0_12cleanup_listEE_8__invokeESQ_SR_SS_ST_SV_"(ptr noundef %0, ptr noundef %1, ptr noundef %2, i32 noundef %3, ptr noundef %4) #10 align 2 {
  %6 = alloca ptr, align 8
  %7 = alloca ptr, align 8
  %8 = alloca ptr, align 8
  %9 = alloca i32, align 4
  %10 = alloca ptr, align 8
  %11 = alloca %class.anon.655, align 1
  store ptr %0, ptr %6, align 8, !tbaa !8
  store ptr %1, ptr %7, align 8, !tbaa !165
  store ptr %2, ptr %8, align 8, !tbaa !34
  store i32 %3, ptr %9, align 4, !tbaa !23
  store ptr %4, ptr %10, align 8, !tbaa !167
  %12 = load ptr, ptr %6, align 8, !tbaa !8
  %13 = load ptr, ptr %7, align 8, !tbaa !165
  %14 = load ptr, ptr %8, align 8, !tbaa !34
  %15 = load i32, ptr %9, align 4, !tbaa !23
  %16 = load ptr, ptr %10, align 8, !tbaa !167
  %17 = call noundef ptr @"_ZZN8nanobind6detail11func_createILb0ELb1EZL26nanobind_init_test_stl_extRNS_7module_EE4$_49St8optionalI13NonAssignableEJRS7_EJLm0EEJNS_5scopeENS_4nameEEEEP7_objectOT1_PFT2_DpT3_ESt16integer_sequenceImJXspT4_EEEDpRKT5_ENKUlPvPSC_PhNS_9rv_policyEPNS0_12cleanup_listEE_clESQ_SR_SS_ST_SV_"(ptr noundef nonnull align 1 dereferenceable(1) %11, ptr noundef %12, ptr noundef %13, ptr noundef %14, i32 noundef %15, ptr noundef %16) #22
  ret ptr %17
}