; Function Attrs: inlinehint mustprogress nounwind optsize uwtable
define internal noundef ptr @"_ZZN8nanobind6detail11func_createILb0ELb1EZL26nanobind_init_test_stl_extRNS_7module_EE4$_49St8optionalI13NonAssignableEJRS7_EJLm0EEJNS_5scopeENS_4nameEEEEP7_objectOT1_PFT2_DpT3_ESt16integer_sequenceImJXspT4_EEEDpRKT5_ENUlPvPSC_PhNS_9rv_policyEPNS0_12cleanup_listEE_8__invokeESQ_SR_SS_ST_SV_"(ptr readnone captures(none) %0, ptr noundef readonly captures(none) %1, ptr noundef readonly captures(none) %2, i32 noundef %3, ptr noundef %4) #18 align 2 {
  %6 = alloca %"struct.nanobind::detail::tuple.657", align 4
  %7 = alloca %"class.std::optional.660", align 4
  call void @llvm.lifetime.start.p0(i64 8, ptr nonnull %6) #28
  %8 = getelementptr inbounds nuw i8, ptr %6, i64 4
  store i8 0, ptr %8, align 4, !tbaa !427
  %9 = load ptr, ptr %1, align 8, !tbaa !131
  %10 = load i8, ptr %2, align 1, !tbaa !44
  %11 = call noundef zeroext i1 @_ZN8nanobind6detail15optional_casterISt8optionalI13NonAssignableES3_E11from_pythonENS_6handleEhPNS0_12cleanup_listE(ptr noundef nonnull align 4 dereferenceable(8) %6, ptr %9, i8 noundef zeroext %10, ptr noundef %4) #27
  br i1 %11, label %12, label %"_ZZN8nanobind6detail11func_createILb0ELb1EZL26nanobind_init_test_stl_extRNS_7module_EE4$_49St8optionalI13NonAssignableEJRS7_EJLm0EEJNS_5scopeENS_4nameEEEEP7_objectOT1_PFT2_DpT3_ESt16integer_sequenceImJXspT4_EEEDpRKT5_ENKUlPvPSC_PhNS_9rv_policyEPNS0_12cleanup_listEE_clESQ_SR_SS_ST_SV_.exit"

12:                                               ; preds = %5
  call void @llvm.lifetime.start.p0(i64 8, ptr nonnull %7) #28
  %.val = load i32, ptr %6, align 4
  %.val4 = load i8, ptr %8, align 4, !tbaa !427, !range !402, !noundef !403
  %13 = getelementptr inbounds nuw i8, ptr %7, i64 4
  store i8 0, ptr %13, align 4, !tbaa !427, !alias.scope !429
  %14 = trunc nuw i8 %.val4 to i1
  br i1 %14, label %15, label %"_ZZL26nanobind_init_test_stl_extRN8nanobind7module_EENK4$_49clERSt8optionalI13NonAssignableE.exit"

15:                                               ; preds = %12
  store i32 %.val, ptr %7, align 4, !tbaa !154, !alias.scope !429
  store i8 1, ptr %13, align 4, !tbaa !427, !alias.scope !429
  br label %"_ZZL26nanobind_init_test_stl_extRN8nanobind7module_EENK4$_49clERSt8optionalI13NonAssignableE.exit"

"_ZZL26nanobind_init_test_stl_extRN8nanobind7module_EENK4$_49clERSt8optionalI13NonAssignableE.exit": ; preds = %12, %15
  %16 = call ptr @_ZN8nanobind6detail15optional_casterISt8optionalI13NonAssignableES3_E8from_cppIS4_EENS_6handleEOT_NS_9rv_policyEPNS0_12cleanup_listE(ptr noundef nonnull align 4 dereferenceable(8) %7, i32 noundef %3, ptr noundef %4) #27
  call void @llvm.lifetime.end.p0(i64 8, ptr nonnull %7) #28
  br label %"_ZZN8nanobind6detail11func_createILb0ELb1EZL26nanobind_init_test_stl_extRNS_7module_EE4$_49St8optionalI13NonAssignableEJRS7_EJLm0EEJNS_5scopeENS_4nameEEEEP7_objectOT1_PFT2_DpT3_ESt16integer_sequenceImJXspT4_EEEDpRKT5_ENKUlPvPSC_PhNS_9rv_policyEPNS0_12cleanup_listEE_clESQ_SR_SS_ST_SV_.exit"

"_ZZN8nanobind6detail11func_createILb0ELb1EZL26nanobind_init_test_stl_extRNS_7module_EE4$_49St8optionalI13NonAssignableEJRS7_EJLm0EEJNS_5scopeENS_4nameEEEEP7_objectOT1_PFT2_DpT3_ESt16integer_sequenceImJXspT4_EEEDpRKT5_ENKUlPvPSC_PhNS_9rv_policyEPNS0_12cleanup_listEE_clESQ_SR_SS_ST_SV_.exit": ; preds = %5, %"_ZZL26nanobind_init_test_stl_extRN8nanobind7module_EENK4$_49clERSt8optionalI13NonAssignableE.exit"
  %.0.i = phi ptr [ %16, %"_ZZL26nanobind_init_test_stl_extRN8nanobind7module_EENK4$_49clERSt8optionalI13NonAssignableE.exit" ], [ inttoptr (i64 1 to ptr), %5 ]
  call void @llvm.lifetime.end.p0(i64 8, ptr nonnull %6) #28
  ret ptr %.0.i
}